; Function Attrs: mustprogress nofree norecurse nosync nounwind willreturn memory(argmem: readwrite) uwtable
define hidden void @png_push_restore_buffer(ptr noalias nocapture noundef %0, ptr noundef %1, i64 noundef %2) local_unnamed_addr #1 {
  %4 = getelementptr inbounds i8, ptr %0, i64 720
  store ptr %1, ptr %4, align 8
  %5 = getelementptr inbounds i8, ptr %0, i64 760
  store i64 %2, ptr %5, align 8
  %6 = getelementptr inbounds i8, ptr %0, i64 736
  %7 = load i64, ptr %6, align 8
  %8 = add i64 %7, %2
  %9 = getelementptr inbounds i8, ptr %0, i64 752
  store i64 %8, ptr %9, align 8
  %10 = getelementptr inbounds i8, ptr %0, i64 712
  store ptr %1, ptr %10, align 8
  ret void
}